target datalayout = "e-m:e-p270:32:32-p271:32:32-p272:64:64-i64:64-i128:128-f80:128-n8:16:32:64-S128"
target triple = "x86_64-pc-linux-gnu"

%struct._lv_array_t = type { ptr, i32, i32, i32, i8 }
%struct.lv_event_list_t = type { %struct._lv_array_t, i8 }
%struct._lv_event_dsc_t = type { ptr, ptr, i32 }

; Function Attrs: nounwind uwtable
define internal void @cleanup_event_list(ptr noundef %0) #0 {
  %2 = alloca ptr, align 8
  store ptr %0, ptr %2, align 8, !tbaa !33
  %3 = load ptr, ptr %2, align 8, !tbaa !33
  %4 = getelementptr inbounds nuw %struct.lv_event_list_t, ptr %3, i32 0, i32 1
  %5 = load i8, ptr %4, align 8
  %6 = and i8 %5, 1
  %7 = icmp ne i8 %6, 0
  br i1 %7, label %8, label %9

8:                                                ; preds = %1
  br label %26

9:                                                ; preds = %1
  %10 = load ptr, ptr %2, align 8, !tbaa !33
  %11 = getelementptr inbounds nuw %struct.lv_event_list_t, ptr %10, i32 0, i32 1
  %12 = load i8, ptr %11, align 8
  %13 = lshr i8 %12, 1
  %14 = and i8 %13, 1
  %15 = zext i8 %14 to i32
  %16 = icmp eq i32 %15, 0
  br i1 %16, label %17, label %18

17:                                               ; preds = %9
  br label %26

18:                                               ; preds = %9
  %19 = load ptr, ptr %2, align 8, !tbaa !33
  %20 = getelementptr inbounds nuw %struct.lv_event_list_t, ptr %19, i32 0, i32 0
  call void @cleanup_event_list_core(ptr noundef %20)
  %21 = load ptr, ptr %2, align 8, !tbaa !33
  %22 = getelementptr inbounds nuw %struct.lv_event_list_t, ptr %21, i32 0, i32 1
  %23 = load i8, ptr %22, align 8
  %24 = and i8 %23, -3
  %25 = or i8 %24, 0
  store i8 %25, ptr %22, align 8
  br label %26

26:                                               ; preds = %18, %17, %8
  ret void
}

; Function Attrs: nounwind uwtable
define internal void @event_mark_deleting(ptr noundef %0, ptr noundef %1) #0 {
  %3 = alloca ptr, align 8
  %4 = alloca ptr, align 8
  store ptr %0, ptr %3, align 8, !tbaa !33
  store ptr %1, ptr %4, align 8, !tbaa !38
  %5 = load ptr, ptr %3, align 8, !tbaa !33
  %6 = getelementptr inbounds nuw %struct.lv_event_list_t, ptr %5, i32 0, i32 1
  %7 = load i8, ptr %6, align 8
  %8 = and i8 %7, -3
  %9 = or i8 %8, 2
  store i8 %9, ptr %6, align 8
  %10 = load ptr, ptr %4, align 8, !tbaa !38
  %11 = getelementptr inbounds nuw %struct._lv_event_dsc_t, ptr %10, i32 0, i32 2
  %12 = load i32, ptr %11, align 8, !tbaa !42
  %13 = or i32 %12, 65536
  store i32 %13, ptr %11, align 8, !tbaa !42
  ret void
}

; Function Attrs: nounwind uwtable
define internal ptr @event_array_at(ptr noundef %0, i32 noundef %1) #0 {
  %3 = alloca ptr, align 8
  %4 = alloca i32, align 4
  store ptr %0, ptr %3, align 8, !tbaa !33
  store i32 %1, ptr %4, align 4, !tbaa !37
  %5 = load ptr, ptr %3, align 8, !tbaa !33
  %6 = getelementptr inbounds nuw %struct.lv_event_list_t, ptr %5, i32 0, i32 0
  %7 = load i32, ptr %4, align 4, !tbaa !37
  %8 = call ptr @lv_array_at(ptr noundef %6, i32 noundef %7)
  ret ptr %8
}

; Function Attrs: nounwind uwtable
define internal i32 @event_array_size(ptr noundef %0) #0 {
  %2 = alloca ptr, align 8
  store ptr %0, ptr %2, align 8, !tbaa !33
  %3 = load ptr, ptr %2, align 8, !tbaa !33
  %4 = getelementptr inbounds nuw %struct.lv_event_list_t, ptr %3, i32 0, i32 0
  %5 = call i32 @lv_array_size(ptr noundef %4)
  ret i32 %5
}

; Function Attrs: nounwind uwtable
define void @lv_event_remove_all(ptr noundef %0) #0 {
  %2 = alloca ptr, align 8
  %3 = alloca i32, align 4
  %4 = alloca i32, align 4
  store ptr %0, ptr %2, align 8, !tbaa !33
  br label %5

5:                                                ; preds = %1
  %6 = load ptr, ptr %2, align 8, !tbaa !33
  %7 = icmp ne ptr %6, null
  br i1 %7, label %12, label %8

8:                                                ; preds = %5
  br label %9

9:                                                ; preds = %8
  br label %10

10:                                               ; preds = %9
  br label %11

11:                                               ; preds = %10, %11
  br label %11

12:                                               ; preds = %5
  br label %13

13:                                               ; preds = %12
  call void @llvm.lifetime.start.p0(i64 4, ptr %3) #4
  %14 = load ptr, ptr %2, align 8, !tbaa !33
  %15 = call i32 @event_array_size(ptr noundef %14)
  store i32 %15, ptr %3, align 4, !tbaa !37
  call void @llvm.lifetime.start.p0(i64 4, ptr %4) #4
  store i32 0, ptr %4, align 4, !tbaa !37
  br label %16

16:                                               ; preds = %27, %13
  %17 = load i32, ptr %4, align 4, !tbaa !37
  %18 = load i32, ptr %3, align 4, !tbaa !37
  %19 = icmp ult i32 %17, %18
  br i1 %19, label %21, label %20

20:                                               ; preds = %16
  call void @llvm.lifetime.end.p0(i64 4, ptr %4) #4
  br label %30

21:                                               ; preds = %16
  %22 = load ptr, ptr %2, align 8, !tbaa !33
  %23 = load ptr, ptr %2, align 8, !tbaa !33
  %24 = load i32, ptr %4, align 4, !tbaa !37
  %25 = call ptr @event_array_at(ptr noundef %23, i32 noundef %24)
  %26 = load ptr, ptr %25, align 8, !tbaa !38
  call void @event_mark_deleting(ptr noundef %22, ptr noundef %26)
  br label %27

27:                                               ; preds = %21
  %28 = load i32, ptr %4, align 4, !tbaa !37
  %29 = add i32 %28, 1
  store i32 %29, ptr %4, align 4, !tbaa !37
  br label %16, !llvm.loop !56

30:                                               ; preds = %20
  %31 = load ptr, ptr %2, align 8, !tbaa !33
  call void @cleanup_event_list(ptr noundef %31)
  call void @llvm.lifetime.end.p0(i64 4, ptr %3) #4
  ret void
}