; Function Attrs: nounwind uwtable
define void @lv_event_remove_all(ptr noundef %0) local_unnamed_addr #2 {
  %.not = icmp eq ptr %0, null
  br i1 %.not, label %.preheader, label %2

.preheader:                                       ; preds = %1, %.preheader
  br label %.preheader

2:                                                ; preds = %1
  %3 = tail call i32 @lv_array_size(ptr noundef nonnull %0) #12
  %.not10 = icmp eq i32 %3, 0
  br i1 %.not10, label %._crit_edge, label %.lr.ph

.lr.ph:                                           ; preds = %2
  %4 = getelementptr inbounds nuw i8, ptr %0, i64 24
  br label %11

._crit_edge:                                      ; preds = %11, %2
  %5 = getelementptr inbounds nuw i8, ptr %0, i64 24
  %6 = load i8, ptr %5, align 8
  %7 = and i8 %6, 3
  %or.cond.not.i = icmp eq i8 %7, 2
  br i1 %or.cond.not.i, label %8, label %cleanup_event_list.exit

8:                                                ; preds = %._crit_edge
  tail call fastcc void @cleanup_event_list_core(ptr noundef nonnull %0)
  %9 = load i8, ptr %5, align 8
  %10 = and i8 %9, -3
  store i8 %10, ptr %5, align 8
  br label %cleanup_event_list.exit

cleanup_event_list.exit:                          ; preds = %._crit_edge, %8
  ret void

11:                                               ; preds = %.lr.ph, %11
  %.09 = phi i32 [ 0, %.lr.ph ], [ %19, %11 ]
  %12 = tail call ptr @lv_array_at(ptr noundef nonnull %0, i32 noundef %.09) #12
  %13 = load ptr, ptr %12, align 8, !tbaa !36
  %14 = load i8, ptr %4, align 8
  %15 = or i8 %14, 2
  store i8 %15, ptr %4, align 8
  %16 = getelementptr inbounds nuw i8, ptr %13, i64 16
  %17 = load i32, ptr %16, align 8, !tbaa !40
  %18 = or i32 %17, 65536
  store i32 %18, ptr %16, align 8, !tbaa !40
  %19 = add nuw i32 %.09, 1
  %exitcond.not = icmp eq i32 %19, %3
  br i1 %exitcond.not, label %._crit_edge, label %11, !llvm.loop !48
}